; Function Attrs: mustprogress uwtable
define void @_ZNK5Yosys12define_map_t3logEv(ptr noundef nonnull readonly align 8 captures(address) dereferenceable(48) %0) local_unnamed_addr #4 align 2 {
  %2 = getelementptr inbounds nuw i8, ptr %0, i64 24
  %3 = load ptr, ptr %2, align 8, !tbaa !27
  %4 = getelementptr inbounds nuw i8, ptr %0, i64 8
  %.not11 = icmp eq ptr %3, %4
  br i1 %.not11, label %._crit_edge, label %.lr.ph

._crit_edge:                                      ; preds = %.lr.ph, %1
  ret void

.lr.ph:                                           ; preds = %1, %.lr.ph
  %.sroa.08.012 = phi ptr [ %14, %.lr.ph ], [ %3, %1 ]
  %5 = getelementptr inbounds nuw i8, ptr %.sroa.08.012, i64 32
  %6 = getelementptr inbounds nuw i8, ptr %.sroa.08.012, i64 64
  %7 = load ptr, ptr %6, align 8, !tbaa !31
  %8 = load ptr, ptr %5, align 8, !tbaa !12
  %9 = getelementptr inbounds nuw i8, ptr %7, i64 32
  %10 = load i8, ptr %9, align 8, !tbaa !34, !range !58, !noundef !59
  %11 = trunc nuw i8 %10 to i1
  %12 = select i1 %11, ptr @.str.5, ptr @.str.6
  %13 = load ptr, ptr %7, align 8, !tbaa !12
  tail call void (ptr, ...) @_ZN5Yosys3logEPKcz(ptr noundef nonnull @.str.4, ptr noundef %8, ptr noundef nonnull %12, ptr noundef %13)
  %14 = tail call noundef ptr @_ZSt18_Rb_tree_incrementPKSt18_Rb_tree_node_base(ptr noundef %.sroa.08.012) #30
  %.not = icmp eq ptr %14, %4
  br i1 %.not, label %._crit_edge, label %.lr.ph
}